target datalayout = "e-m:e-p270:32:32-p271:32:32-p272:64:64-i64:64-i128:128-f80:128-n8:16:32:64-S128"
target triple = "x86_64-pc-linux-gnu"

%struct.re_pattern_buffer = type { ptr, i32, i32, i32, i32, i32, i32, i32, i32, i32, i32, i32, i32, i32, ptr, ptr, ptr, ptr, i32, i32, i32, i32, i64, i64, i32, ptr, ptr, [256 x i8], ptr, ptr, i64, i64, i64, ptr }

; Function Attrs: nounwind sspstrong uwtable
define internal i32 @reg_names_iter(ptr noundef %0, ptr noundef %1, i32 noundef %2, ptr noundef %3, ptr noundef %4, ptr noundef %5) #0 {
  %7 = alloca ptr, align 8
  %8 = alloca ptr, align 8
  %9 = alloca i32, align 4
  %10 = alloca ptr, align 8
  %11 = alloca ptr, align 8
  %12 = alloca ptr, align 8
  %13 = alloca i64, align 8
  store ptr %0, ptr %7, align 8, !tbaa !13
  store ptr %1, ptr %8, align 8, !tbaa !13
  store i32 %2, ptr %9, align 4, !tbaa !16
  store ptr %3, ptr %10, align 8, !tbaa !30
  store ptr %4, ptr %11, align 8, !tbaa !53
  store ptr %5, ptr %12, align 8, !tbaa !7
  call void @llvm.lifetime.start.p0(i64 8, ptr %13) #28
  %14 = load ptr, ptr %12, align 8, !tbaa !7
  %15 = ptrtoint ptr %14 to i64
  store i64 %15, ptr %13, align 8, !tbaa !11
  %16 = load i64, ptr %13, align 8, !tbaa !11
  br i1 false, label %17, label %24

17:                                               ; preds = %6
  %18 = load ptr, ptr %8, align 8, !tbaa !13
  %19 = load ptr, ptr %7, align 8, !tbaa !13
  %20 = ptrtoint ptr %18 to i64
  %21 = ptrtoint ptr %19 to i64
  %22 = sub i64 %20, %21
  %23 = call i1 @llvm.is.constant.i64(i64 %22)
  br label %24

24:                                               ; preds = %17, %6
  %25 = phi i1 [ false, %6 ], [ %23, %17 ]
  %26 = select i1 %25, ptr @rb_enc_str_new_static, ptr @rb_enc_str_new
  %27 = load ptr, ptr %7, align 8, !tbaa !13
  %28 = load ptr, ptr %8, align 8, !tbaa !13
  %29 = load ptr, ptr %7, align 8, !tbaa !13
  %30 = ptrtoint ptr %28 to i64
  %31 = ptrtoint ptr %29 to i64
  %32 = sub i64 %30, %31
  %33 = load ptr, ptr %11, align 8, !tbaa !53
  %34 = getelementptr inbounds nuw %struct.re_pattern_buffer, ptr %33, i32 0, i32 15
  %35 = load ptr, ptr %34, align 8, !tbaa !54
  %36 = call i64 %26(ptr noundef %27, i64 noundef %32, ptr noundef %35)
  %37 = call i64 @rb_ary_push(i64 noundef %16, i64 noundef %36)
  call void @llvm.lifetime.end.p0(i64 8, ptr %13) #28
  ret i32 0
}