; Function Attrs: nounwind sspstrong uwtable
define internal noundef i32 @reg_names_iter(ptr noundef %0, ptr noundef %1, i32 %2, ptr readnone captures(none) %3, ptr noundef readonly captures(none) %4, ptr noundef %5) #2 {
  %7 = ptrtoint ptr %5 to i64
  %8 = ptrtoint ptr %1 to i64
  %9 = ptrtoint ptr %0 to i64
  %10 = sub i64 %8, %9
  %11 = getelementptr inbounds nuw i8, ptr %4, i64 72
  %12 = load ptr, ptr %11, align 8, !tbaa !48
  %13 = tail call i64 @rb_enc_str_new(ptr noundef %0, i64 noundef %10, ptr noundef %12) #29
  %14 = tail call i64 @rb_ary_push(i64 noundef %7, i64 noundef %13) #29
  ret i32 0
}